target datalayout = "e-m:e-p270:32:32-p271:32:32-p272:64:64-i64:64-i128:128-f80:128-n8:16:32:64-S128"
target triple = "x86_64-pc-linux-gnu"

%"class.clang::arcmt::TransformActions" = type { ptr, ptr, ptr }
%"class.(anonymous namespace)::TransformActionsImpl" = type { ptr, ptr, ptr, i8, %"class.std::vector.22", %"class.std::map.27", %"class.std::__cxx11::list.33", %"class.llvm::DenseSet", %"class.std::vector.38", %"class.llvm::StringMap" }
%"class.std::vector.22" = type { %"struct.std::_Vector_base.23" }
%"struct.std::_Vector_base.23" = type { %"struct.std::_Vector_base<(anonymous namespace)::TransformActionsImpl::ActionData, std::allocator<(anonymous namespace)::TransformActionsImpl::ActionData>>::_Vector_impl" }
%"struct.std::_Vector_base<(anonymous namespace)::TransformActionsImpl::ActionData, std::allocator<(anonymous namespace)::TransformActionsImpl::ActionData>>::_Vector_impl" = type { %"struct.std::_Vector_base<(anonymous namespace)::TransformActionsImpl::ActionData, std::allocator<(anonymous namespace)::TransformActionsImpl::ActionData>>::_Vector_impl_data" }
%"struct.std::_Vector_base<(anonymous namespace)::TransformActionsImpl::ActionData, std::allocator<(anonymous namespace)::TransformActionsImpl::ActionData>>::_Vector_impl_data" = type { ptr, ptr, ptr }
%"class.std::map.27" = type { %"class.std::_Rb_tree.28" }
%"class.std::_Rb_tree.28" = type { %"struct.std::_Rb_tree<clang::FullSourceLoc, std::pair<const clang::FullSourceLoc, llvm::SmallVector<llvm::StringRef, 2>>, std::_Select1st<std::pair<const clang::FullSourceLoc, llvm::SmallVector<llvm::StringRef, 2>>>, clang::FullSourceLoc::BeforeThanCompare>::_Rb_tree_impl" }
%"struct.std::_Rb_tree<clang::FullSourceLoc, std::pair<const clang::FullSourceLoc, llvm::SmallVector<llvm::StringRef, 2>>, std::_Select1st<std::pair<const clang::FullSourceLoc, llvm::SmallVector<llvm::StringRef, 2>>>, clang::FullSourceLoc::BeforeThanCompare>::_Rb_tree_impl" = type { [8 x i8], %"struct.std::_Rb_tree_header" }
%"struct.std::_Rb_tree_header" = type { %"struct.std::_Rb_tree_node_base", i64 }
%"struct.std::_Rb_tree_node_base" = type { i32, ptr, ptr, ptr }
%"class.std::__cxx11::list.33" = type { %"class.std::__cxx11::_List_base.34" }
%"class.std::__cxx11::_List_base.34" = type { %"struct.std::__cxx11::_List_base<(anonymous namespace)::TransformActionsImpl::CharRange, std::allocator<(anonymous namespace)::TransformActionsImpl::CharRange>>::_List_impl" }
%"struct.std::__cxx11::_List_base<(anonymous namespace)::TransformActionsImpl::CharRange, std::allocator<(anonymous namespace)::TransformActionsImpl::CharRange>>::_List_impl" = type { %"struct.std::__detail::_List_node_header" }
%"struct.std::__detail::_List_node_header" = type { %"struct.std::__detail::_List_node_base", i64 }
%"struct.std::__detail::_List_node_base" = type { ptr, ptr }
%"class.llvm::DenseSet" = type { %"class.llvm::detail::DenseSetImpl" }
%"class.llvm::detail::DenseSetImpl" = type { %"class.llvm::DenseMap" }
%"class.llvm::DenseMap" = type <{ ptr, i32, i32, i32, [4 x i8] }>
%"class.std::vector.38" = type { %"struct.std::_Vector_base.39" }
%"struct.std::_Vector_base.39" = type { %"struct.std::_Vector_base<std::pair<(anonymous namespace)::TransformActionsImpl::CharRange, clang::SourceLocation>, std::allocator<std::pair<(anonymous namespace)::TransformActionsImpl::CharRange, clang::SourceLocation>>>::_Vector_impl" }
%"struct.std::_Vector_base<std::pair<(anonymous namespace)::TransformActionsImpl::CharRange, clang::SourceLocation>, std::allocator<std::pair<(anonymous namespace)::TransformActionsImpl::CharRange, clang::SourceLocation>>>::_Vector_impl" = type { %"struct.std::_Vector_base<std::pair<(anonymous namespace)::TransformActionsImpl::CharRange, clang::SourceLocation>, std::allocator<std::pair<(anonymous namespace)::TransformActionsImpl::CharRange, clang::SourceLocation>>>::_Vector_impl_data" }
%"struct.std::_Vector_base<std::pair<(anonymous namespace)::TransformActionsImpl::CharRange, clang::SourceLocation>, std::allocator<std::pair<(anonymous namespace)::TransformActionsImpl::CharRange, clang::SourceLocation>>>::_Vector_impl_data" = type { ptr, ptr, ptr }
%"class.llvm::StringMap" = type { %"class.llvm::StringMapImpl" }
%"class.llvm::StringMapImpl" = type { ptr, i32, i32, i32, i32 }
%"class.clang::SourceLocation" = type { i32 }
%"class.clang::SourceRange" = type { %"class.clang::SourceLocation", %"class.clang::SourceLocation" }
%"class.llvm::StringRef" = type { ptr, i64 }
%"struct.(anonymous namespace)::TransformActionsImpl::ActionData" = type { i32, %"class.clang::SourceLocation", %"class.clang::SourceRange", %"class.clang::SourceRange", %"class.llvm::StringRef", %"class.llvm::StringRef", ptr, %"class.llvm::SmallVector.571" }
%"class.llvm::SmallVector.571" = type { %"class.llvm::SmallVectorImpl.572", %"struct.llvm::SmallVectorStorage.575" }
%"class.llvm::SmallVectorImpl.572" = type { %"class.llvm::SmallVectorTemplateBase.573" }
%"class.llvm::SmallVectorTemplateBase.573" = type { %"class.llvm::SmallVectorTemplateCommon.574" }
%"class.llvm::SmallVectorTemplateCommon.574" = type { %"class.llvm::SmallVectorBase" }
%"class.llvm::SmallVectorBase" = type { ptr, i32, i32 }
%"struct.llvm::SmallVectorStorage.575" = type { [8 x i8] }

; Function Attrs: mustprogress nounwind uwtable
define linkonce_odr hidden noundef ptr @_ZNK4llvm25SmallVectorTemplateCommonIjvE10getFirstElEv(ptr noundef nonnull align 8 dereferenceable(16) %0) #0 comdat align 2 {
  %2 = alloca ptr, align 8
  store ptr %0, ptr %2, align 8
  %3 = load ptr, ptr %2, align 8
  %4 = getelementptr inbounds i8, ptr %3, i64 16
  ret ptr %4
}

; Function Attrs: mustprogress nounwind uwtable
define linkonce_odr hidden void @_ZN4llvm25SmallVectorTemplateCommonIjvEC2Em(ptr noundef nonnull align 8 dereferenceable(16) %0, i64 noundef %1) unnamed_addr #0 comdat align 2 {
  %3 = alloca ptr, align 8
  %4 = alloca i64, align 8
  store ptr %0, ptr %3, align 8
  store i64 %1, ptr %4, align 8
  %5 = load ptr, ptr %3, align 8
  %6 = call noundef ptr @_ZNK4llvm25SmallVectorTemplateCommonIjvE10getFirstElEv(ptr noundef nonnull align 8 dereferenceable(16) %5)
  %7 = load i64, ptr %4, align 8
  call void @_ZN4llvm15SmallVectorBaseIjEC2EPvm(ptr noundef nonnull align 8 dereferenceable(16) %5, ptr noundef %6, i64 noundef %7)
  ret void
}

; Function Attrs: mustprogress nounwind uwtable
define linkonce_odr hidden noundef zeroext i1 @_ZNK4llvm25SmallVectorTemplateCommonIjvE7isSmallEv(ptr noundef nonnull align 8 dereferenceable(16) %0) #0 comdat align 2 {
  %2 = alloca ptr, align 8
  store ptr %0, ptr %2, align 8
  %3 = load ptr, ptr %2, align 8
  %4 = getelementptr inbounds nuw %"class.llvm::SmallVectorBase", ptr %3, i32 0, i32 0
  %5 = load ptr, ptr %4, align 8
  %6 = call noundef ptr @_ZNK4llvm25SmallVectorTemplateCommonIjvE10getFirstElEv(ptr noundef nonnull align 8 dereferenceable(16) %3)
  %7 = icmp eq ptr %5, %6
  ret i1 %7
}

; Function Attrs: mustprogress nounwind uwtable
define linkonce_odr hidden void @_ZN4llvm23SmallVectorTemplateBaseIjLb1EEC2Em(ptr noundef nonnull align 8 dereferenceable(16) %0, i64 noundef %1) unnamed_addr #0 comdat align 2 {
  %3 = alloca ptr, align 8
  %4 = alloca i64, align 8
  store ptr %0, ptr %3, align 8
  store i64 %1, ptr %4, align 8
  %5 = load ptr, ptr %3, align 8
  %6 = load i64, ptr %4, align 8
  call void @_ZN4llvm25SmallVectorTemplateCommonIjvEC2Em(ptr noundef nonnull align 8 dereferenceable(16) %5, i64 noundef %6)
  ret void
}

; Function Attrs: mustprogress nounwind uwtable
define linkonce_odr hidden void @_ZN4llvm15SmallVectorImplIjED2Ev(ptr noundef nonnull align 8 dereferenceable(16) %0) unnamed_addr #0 comdat align 2 {
  %2 = alloca ptr, align 8
  store ptr %0, ptr %2, align 8
  %3 = load ptr, ptr %2, align 8
  %4 = call noundef zeroext i1 @_ZNK4llvm25SmallVectorTemplateCommonIjvE7isSmallEv(ptr noundef nonnull align 8 dereferenceable(16) %3)
  br i1 %4, label %7, label %5

5:                                                ; preds = %1
  %6 = call noundef ptr @_ZN4llvm25SmallVectorTemplateCommonIjvE5beginEv(ptr noundef nonnull align 8 dereferenceable(16) %3)
  call void @free(ptr noundef %6) #13
  br label %7

7:                                                ; preds = %5, %1
  ret void
}

; Function Attrs: mustprogress nounwind uwtable
define linkonce_odr hidden void @_ZN4llvm23SmallVectorTemplateBaseIjLb1EE13destroy_rangeEPjS2_(ptr noundef %0, ptr noundef %1) #0 comdat align 2 {
  %3 = alloca ptr, align 8
  %4 = alloca ptr, align 8
  store ptr %0, ptr %3, align 8
  store ptr %1, ptr %4, align 8
  ret void
}

; Function Attrs: mustprogress nounwind uwtable
define linkonce_odr hidden noundef ptr @_ZN4llvm25SmallVectorTemplateCommonIjvE3endEv(ptr noundef nonnull align 8 dereferenceable(16) %0) #0 comdat align 2 {
  %2 = alloca ptr, align 8
  store ptr %0, ptr %2, align 8
  %3 = load ptr, ptr %2, align 8
  %4 = call noundef ptr @_ZN4llvm25SmallVectorTemplateCommonIjvE5beginEv(ptr noundef nonnull align 8 dereferenceable(16) %3)
  %5 = call noundef i64 @_ZNK4llvm15SmallVectorBaseIjE4sizeEv(ptr noundef nonnull align 8 dereferenceable(16) %3)
  %6 = getelementptr inbounds i32, ptr %4, i64 %5
  ret ptr %6
}

; Function Attrs: mustprogress nounwind uwtable
define linkonce_odr hidden noundef ptr @_ZN4llvm25SmallVectorTemplateCommonIjvE5beginEv(ptr noundef nonnull align 8 dereferenceable(16) %0) #0 comdat align 2 {
  %2 = alloca ptr, align 8
  store ptr %0, ptr %2, align 8
  %3 = load ptr, ptr %2, align 8
  %4 = getelementptr inbounds nuw %"class.llvm::SmallVectorBase", ptr %3, i32 0, i32 0
  %5 = load ptr, ptr %4, align 8
  ret ptr %5
}

; Function Attrs: mustprogress nounwind uwtable
define linkonce_odr hidden void @_ZN4llvm15SmallVectorImplIjEC2Ej(ptr noundef nonnull align 8 dereferenceable(16) %0, i32 noundef %1) unnamed_addr #0 comdat align 2 {
  %3 = alloca ptr, align 8
  %4 = alloca i32, align 4
  store ptr %0, ptr %3, align 8
  store i32 %1, ptr %4, align 4
  %5 = load ptr, ptr %3, align 8
  %6 = load i32, ptr %4, align 4
  %7 = zext i32 %6 to i64
  call void @_ZN4llvm23SmallVectorTemplateBaseIjLb1EEC2Em(ptr noundef nonnull align 8 dereferenceable(16) %5, i64 noundef %7)
  ret void
}

; Function Attrs: mustprogress nounwind uwtable
define linkonce_odr hidden void @_ZN4llvm11SmallVectorIjLj2EED2Ev(ptr noundef nonnull align 8 dereferenceable(24) %0) unnamed_addr #0 comdat align 2 {
  %2 = alloca ptr, align 8
  store ptr %0, ptr %2, align 8
  %3 = load ptr, ptr %2, align 8
  %4 = call noundef ptr @_ZN4llvm25SmallVectorTemplateCommonIjvE5beginEv(ptr noundef nonnull align 8 dereferenceable(16) %3)
  %5 = call noundef ptr @_ZN4llvm25SmallVectorTemplateCommonIjvE3endEv(ptr noundef nonnull align 8 dereferenceable(16) %3)
  call void @_ZN4llvm23SmallVectorTemplateBaseIjLb1EE13destroy_rangeEPjS2_(ptr noundef %4, ptr noundef %5)
  call void @_ZN4llvm15SmallVectorImplIjED2Ev(ptr noundef nonnull align 8 dereferenceable(16) %3) #13
  ret void
}

; Function Attrs: mustprogress nounwind uwtable
define linkonce_odr hidden void @_ZN4llvm11SmallVectorIjLj2EEC2Ev(ptr noundef nonnull align 8 dereferenceable(24) %0) unnamed_addr #0 comdat align 2 {
  %2 = alloca ptr, align 8
  store ptr %0, ptr %2, align 8
  %3 = load ptr, ptr %2, align 8
  call void @_ZN4llvm15SmallVectorImplIjEC2Ej(ptr noundef nonnull align 8 dereferenceable(16) %3, i32 noundef 2)
  ret void
}

; Function Attrs: mustprogress nounwind uwtable
define linkonce_odr hidden void @_ZN4llvm9StringRefC2Ev(ptr noundef nonnull align 8 dereferenceable(16) %0) unnamed_addr #0 comdat align 2 {
  %2 = alloca ptr, align 8
  store ptr %0, ptr %2, align 8
  %3 = load ptr, ptr %2, align 8
  %4 = getelementptr inbounds nuw %"class.llvm::StringRef", ptr %3, i32 0, i32 0
  store ptr null, ptr %4, align 8
  %5 = getelementptr inbounds nuw %"class.llvm::StringRef", ptr %3, i32 0, i32 1
  store i64 0, ptr %5, align 8
  ret void
}

; Function Attrs: mustprogress nounwind uwtable
define linkonce_odr hidden void @_ZN5clang11SourceRangeC2Ev(ptr noundef nonnull align 4 dereferenceable(8) %0) unnamed_addr #0 comdat align 2 {
  %2 = alloca ptr, align 8
  store ptr %0, ptr %2, align 8
  %3 = load ptr, ptr %2, align 8
  %4 = getelementptr inbounds nuw %"class.clang::SourceRange", ptr %3, i32 0, i32 0
  call void @_ZN5clang14SourceLocationC2Ev(ptr noundef nonnull align 4 dereferenceable(4) %4) #13
  %5 = getelementptr inbounds nuw %"class.clang::SourceRange", ptr %3, i32 0, i32 1
  call void @_ZN5clang14SourceLocationC2Ev(ptr noundef nonnull align 4 dereferenceable(4) %5) #13
  ret void
}

; Function Attrs: mustprogress nounwind uwtable
define linkonce_odr hidden void @_ZN5clang14SourceLocationC2Ev(ptr noundef nonnull align 4 dereferenceable(4) %0) unnamed_addr #0 comdat align 2 {
  %2 = alloca ptr, align 8
  store ptr %0, ptr %2, align 8
  %3 = load ptr, ptr %2, align 8
  %4 = getelementptr inbounds nuw %"class.clang::SourceLocation", ptr %3, i32 0, i32 0
  store i32 0, ptr %4, align 4
  ret void
}

; Function Attrs: mustprogress nounwind uwtable
define internal void @_ZN12_GLOBAL__N_120TransformActionsImpl10ActionDataD2Ev(ptr noundef nonnull align 8 dereferenceable(88) %0) unnamed_addr #0 align 2 {
  %2 = alloca ptr, align 8
  store ptr %0, ptr %2, align 8
  %3 = load ptr, ptr %2, align 8
  %4 = getelementptr inbounds nuw %"struct.(anonymous namespace)::TransformActionsImpl::ActionData", ptr %3, i32 0, i32 7
  call void @_ZN4llvm11SmallVectorIjLj2EED2Ev(ptr noundef nonnull align 8 dereferenceable(24) %4) #13
  ret void
}

; Function Attrs: mustprogress nounwind uwtable
define internal void @_ZN12_GLOBAL__N_120TransformActionsImpl10ActionDataC2Ev(ptr noundef nonnull align 8 dereferenceable(88) %0) unnamed_addr #0 align 2 {
  %2 = alloca ptr, align 8
  store ptr %0, ptr %2, align 8
  %3 = load ptr, ptr %2, align 8
  %4 = getelementptr inbounds nuw %"struct.(anonymous namespace)::TransformActionsImpl::ActionData", ptr %3, i32 0, i32 1
  call void @_ZN5clang14SourceLocationC2Ev(ptr noundef nonnull align 4 dereferenceable(4) %4) #13
  %5 = getelementptr inbounds nuw %"struct.(anonymous namespace)::TransformActionsImpl::ActionData", ptr %3, i32 0, i32 2
  call void @_ZN5clang11SourceRangeC2Ev(ptr noundef nonnull align 4 dereferenceable(8) %5) #13
  %6 = getelementptr inbounds nuw %"struct.(anonymous namespace)::TransformActionsImpl::ActionData", ptr %3, i32 0, i32 3
  call void @_ZN5clang11SourceRangeC2Ev(ptr noundef nonnull align 4 dereferenceable(8) %6) #13
  %7 = getelementptr inbounds nuw %"struct.(anonymous namespace)::TransformActionsImpl::ActionData", ptr %3, i32 0, i32 4
  call void @_ZN4llvm9StringRefC2Ev(ptr noundef nonnull align 8 dereferenceable(16) %7) #13
  %8 = getelementptr inbounds nuw %"struct.(anonymous namespace)::TransformActionsImpl::ActionData", ptr %3, i32 0, i32 5
  call void @_ZN4llvm9StringRefC2Ev(ptr noundef nonnull align 8 dereferenceable(16) %8) #13
  %9 = getelementptr inbounds nuw %"struct.(anonymous namespace)::TransformActionsImpl::ActionData", ptr %3, i32 0, i32 7
  call void @_ZN4llvm11SmallVectorIjLj2EEC2Ev(ptr noundef nonnull align 8 dereferenceable(24) %9)
  ret void
}

; Function Attrs: mustprogress nounwind uwtable
define internal void @_ZN12_GLOBAL__N_120TransformActionsImpl7replaceEN5clang11SourceRangeES2_(ptr noundef nonnull align 8 dereferenceable(200) %0, i64 %1, i64 %2) #0 align 2 {
  %4 = alloca %"class.clang::SourceRange", align 4
  %5 = alloca %"class.clang::SourceRange", align 4
  %6 = alloca ptr, align 8
  %7 = alloca %"struct.(anonymous namespace)::TransformActionsImpl::ActionData", align 8
  store i64 %1, ptr %4, align 4
  store i64 %2, ptr %5, align 4
  store ptr %0, ptr %6, align 8
  %8 = load ptr, ptr %6, align 8
  call void @_ZN12_GLOBAL__N_120TransformActionsImpl10ActionDataC2Ev(ptr noundef nonnull align 8 dereferenceable(88) %7)
  %9 = getelementptr inbounds nuw %"struct.(anonymous namespace)::TransformActionsImpl::ActionData", ptr %7, i32 0, i32 0
  store i32 4, ptr %9, align 8
  %10 = getelementptr inbounds nuw %"struct.(anonymous namespace)::TransformActionsImpl::ActionData", ptr %7, i32 0, i32 2
  call void @llvm.memcpy.p0.p0.i64(ptr align 8 %10, ptr align 4 %4, i64 8, i1 false)
  %11 = getelementptr inbounds nuw %"struct.(anonymous namespace)::TransformActionsImpl::ActionData", ptr %7, i32 0, i32 3
  call void @llvm.memcpy.p0.p0.i64(ptr align 8 %11, ptr align 4 %5, i64 8, i1 false)
  %12 = getelementptr inbounds nuw %"class.(anonymous namespace)::TransformActionsImpl", ptr %8, i32 0, i32 4
  call void @_ZNSt6vectorIN12_GLOBAL__N_120TransformActionsImpl10ActionDataESaIS2_EE9push_backERKS2_(ptr noundef nonnull align 8 dereferenceable(24) %12, ptr noundef nonnull align 8 dereferenceable(88) %7)
  call void @_ZN12_GLOBAL__N_120TransformActionsImpl10ActionDataD2Ev(ptr noundef nonnull align 8 dereferenceable(88) %7) #13
  ret void
}

; Function Attrs: mustprogress nounwind uwtable
define dso_local void @_ZN5clang5arcmt16TransformActions7replaceENS_11SourceRangeES2_(ptr noundef nonnull align 8 dereferenceable(24) %0, i64 %1, i64 %2) #0 align 2 {
  %4 = alloca %"class.clang::SourceRange", align 4
  %5 = alloca %"class.clang::SourceRange", align 4
  %6 = alloca ptr, align 8
  %7 = alloca %"class.clang::SourceRange", align 4
  %8 = alloca %"class.clang::SourceRange", align 4
  store i64 %1, ptr %4, align 4
  store i64 %2, ptr %5, align 4
  store ptr %0, ptr %6, align 8
  %9 = load ptr, ptr %6, align 8
  %10 = getelementptr inbounds nuw %"class.clang::arcmt::TransformActions", ptr %9, i32 0, i32 2
  %11 = load ptr, ptr %10, align 8
  call void @llvm.memcpy.p0.p0.i64(ptr align 4 %7, ptr align 4 %4, i64 8, i1 false)
  call void @llvm.memcpy.p0.p0.i64(ptr align 4 %8, ptr align 4 %5, i64 8, i1 false)
  %12 = load i64, ptr %7, align 4
  %13 = load i64, ptr %8, align 4
  call void @_ZN12_GLOBAL__N_120TransformActionsImpl7replaceEN5clang11SourceRangeES2_(ptr noundef nonnull align 8 dereferenceable(200) %11, i64 %12, i64 %13)
  ret void
}