; Function Attrs: mustprogress nounwind uwtable
define dso_local void @_ZN5clang5arcmt16TransformActions7replaceENS_11SourceRangeES2_(ptr noundef nonnull readonly align 8 captures(none) dereferenceable(24) %0, i64 %1, i64 %2) local_unnamed_addr #3 align 2 {
  %4 = alloca %"struct.(anonymous namespace)::TransformActionsImpl::ActionData", align 8
  %5 = getelementptr inbounds nuw i8, ptr %0, i64 16
  %6 = load ptr, ptr %5, align 8
  call void @llvm.lifetime.start.p0(i64 88, ptr nonnull %4)
  %7 = getelementptr inbounds nuw i8, ptr %4, i64 4
  %8 = getelementptr inbounds nuw i8, ptr %4, i64 64
  %9 = getelementptr inbounds nuw i8, ptr %4, i64 80
  call void @llvm.memset.p0.i64(ptr noundef nonnull align 4 dereferenceable(52) %7, i8 0, i64 52, i1 false)
  call void @_ZN4llvm15SmallVectorBaseIjEC2EPvm(ptr noundef nonnull align 8 dereferenceable(24) %8, ptr noundef nonnull %9, i64 noundef 2) #21
  store i32 4, ptr %4, align 8
  %10 = getelementptr inbounds nuw i8, ptr %4, i64 8
  store i64 %1, ptr %10, align 8
  %11 = getelementptr inbounds nuw i8, ptr %4, i64 16
  store i64 %2, ptr %11, align 8
  %12 = getelementptr inbounds nuw i8, ptr %6, i64 32
  call fastcc void @_ZNSt6vectorIN12_GLOBAL__N_120TransformActionsImpl10ActionDataESaIS2_EE9push_backERKS2_(ptr noundef nonnull align 8 dereferenceable(24) %12, ptr noundef nonnull align 8 dereferenceable(88) %4)
  %13 = call noundef i64 @_ZNK4llvm15SmallVectorBaseIjE4sizeEv(ptr noundef nonnull align 8 dereferenceable(24) %8) #21
  %14 = load ptr, ptr %8, align 8
  %15 = icmp eq ptr %14, %9
  br i1 %15, label %_ZN12_GLOBAL__N_120TransformActionsImpl7replaceEN5clang11SourceRangeES2_.exit, label %16

16:                                               ; preds = %3
  call void @free(ptr noundef %14) #21
  br label %_ZN12_GLOBAL__N_120TransformActionsImpl7replaceEN5clang11SourceRangeES2_.exit

_ZN12_GLOBAL__N_120TransformActionsImpl7replaceEN5clang11SourceRangeES2_.exit: ; preds = %3, %16
  call void @llvm.lifetime.end.p0(i64 88, ptr nonnull %4)
  ret void
}